; Function Attrs: mustprogress uwtable
define hidden noundef zeroext i1 @_ZN12bv2real_util10mk_bv2realEP4exprS1_R8rationalS3_R7obj_refIS0_11ast_managerE(ptr noundef nonnull align 8 dereferenceable(272) %this, ptr noundef %_s, ptr noundef %_t, ptr noundef nonnull align 8 dereferenceable(32) %d, ptr noundef nonnull align 8 dereferenceable(32) %r, ptr nocapture noundef nonnull align 8 dereferenceable(16) %result) local_unnamed_addr #3 align 2 personality ptr @__gxx_personality_v0 {
entry:
  %s = alloca %class.obj_ref.42, align 8
  %t = alloca %class.obj_ref.42, align 8
  %0 = load ptr, ptr %this, align 8
  store ptr %_s, ptr %s, align 8
  %m_manager.i = getelementptr inbounds i8, ptr %s, i64 8
  store ptr %0, ptr %m_manager.i, align 8
  %tobool.not.i.i = icmp eq ptr %_s, null
  br i1 %tobool.not.i.i, label %_ZN7obj_refI4expr11ast_managerEC2EPS0_RS1_.exit, label %_ZN11ast_manager7inc_refEP3ast.exit.i.i

_ZN11ast_manager7inc_refEP3ast.exit.i.i:          ; preds = %entry
  %m_ref_count.i.i.i.i = getelementptr inbounds i8, ptr %_s, i64 8
  %1 = load i32, ptr %m_ref_count.i.i.i.i, align 4
  %inc.i.i.i.i = add i32 %1, 1
  store i32 %inc.i.i.i.i, ptr %m_ref_count.i.i.i.i, align 4
  %.pre = load ptr, ptr %this, align 8
  br label %_ZN7obj_refI4expr11ast_managerEC2EPS0_RS1_.exit

_ZN7obj_refI4expr11ast_managerEC2EPS0_RS1_.exit:  ; preds = %entry, %_ZN11ast_manager7inc_refEP3ast.exit.i.i
  %2 = phi ptr [ %0, %entry ], [ %.pre, %_ZN11ast_manager7inc_refEP3ast.exit.i.i ]
  store ptr %_t, ptr %t, align 8
  %m_manager.i3 = getelementptr inbounds i8, ptr %t, i64 8
  store ptr %2, ptr %m_manager.i3, align 8
  %tobool.not.i.i4 = icmp eq ptr %_t, null
  br i1 %tobool.not.i.i4, label %invoke.cont3, label %_ZN11ast_manager7inc_refEP3ast.exit.i.i5

_ZN11ast_manager7inc_refEP3ast.exit.i.i5:         ; preds = %_ZN7obj_refI4expr11ast_managerEC2EPS0_RS1_.exit
  %m_ref_count.i.i.i.i6 = getelementptr inbounds i8, ptr %_t, i64 8
  %3 = load i32, ptr %m_ref_count.i.i.i.i6, align 4
  %inc.i.i.i.i7 = add i32 %3, 1
  store i32 %inc.i.i.i.i7, ptr %m_ref_count.i.i.i.i6, align 4
  br label %invoke.cont3

invoke.cont3:                                     ; preds = %_ZN11ast_manager7inc_refEP3ast.exit.i.i5, %_ZN7obj_refI4expr11ast_managerEC2EPS0_RS1_.exit
  %call6 = invoke noundef zeroext i1 @_ZN12bv2real_util13align_divisorER7obj_refI4expr11ast_managerES4_R8rational(ptr noundef nonnull align 8 dereferenceable(272) %this, ptr noundef nonnull align 8 dereferenceable(16) %s, ptr noundef nonnull align 8 dereferenceable(16) %t, ptr noundef nonnull align 8 dereferenceable(32) %d)
          to label %invoke.cont5 unwind label %lpad4

invoke.cont5:                                     ; preds = %invoke.cont3
  %.pre26 = load ptr, ptr %t, align 8
  br i1 %call6, label %if.then, label %cleanup

if.then:                                          ; preds = %invoke.cont5
  %4 = load ptr, ptr %s, align 8
  %call12 = invoke noundef ptr @_ZN12bv2real_util12mk_bv2real_cEP4exprS1_RK8rationalS4_(ptr noundef nonnull align 8 dereferenceable(272) %this, ptr noundef %4, ptr noundef %.pre26, ptr noundef nonnull align 8 dereferenceable(32) %d, ptr noundef nonnull align 8 dereferenceable(32) %r)
          to label %invoke.cont11 unwind label %lpad4

invoke.cont11:                                    ; preds = %if.then
  %tobool.not.i = icmp eq ptr %call12, null
  br i1 %tobool.not.i, label %if.end.i, label %_ZN11ast_manager7inc_refEP3ast.exit.i

_ZN11ast_manager7inc_refEP3ast.exit.i:            ; preds = %invoke.cont11
  %m_ref_count.i.i.i = getelementptr inbounds i8, ptr %call12, i64 8
  %5 = load i32, ptr %m_ref_count.i.i.i, align 4
  %inc.i.i.i = add i32 %5, 1
  store i32 %inc.i.i.i, ptr %m_ref_count.i.i.i, align 4
  br label %if.end.i

if.end.i:                                         ; preds = %_ZN11ast_manager7inc_refEP3ast.exit.i, %invoke.cont11
  %6 = load ptr, ptr %result, align 8
  %tobool.not.i3.i = icmp eq ptr %6, null
  br i1 %tobool.not.i3.i, label %_ZN7obj_refI4expr11ast_managerEaSEPS0_.exit, label %if.then.i.i.i

if.then.i.i.i:                                    ; preds = %if.end.i
  %m_manager.i.i = getelementptr inbounds i8, ptr %result, i64 8
  %7 = load ptr, ptr %m_manager.i.i, align 8
  %m_ref_count.i.i.i.i9 = getelementptr inbounds i8, ptr %6, i64 8
  %8 = load i32, ptr %m_ref_count.i.i.i.i9, align 4
  %dec.i.i.i.i = add i32 %8, -1
  store i32 %dec.i.i.i.i, ptr %m_ref_count.i.i.i.i9, align 4
  %cmp.i.i.i = icmp eq i32 %dec.i.i.i.i, 0
  br i1 %cmp.i.i.i, label %if.then2.i.i.i, label %_ZN7obj_refI4expr11ast_managerEaSEPS0_.exit

if.then2.i.i.i:                                   ; preds = %if.then.i.i.i
  invoke void @_ZN11ast_manager11delete_nodeEP3ast(ptr noundef nonnull align 8 dereferenceable(976) %7, ptr noundef nonnull %6)
          to label %_ZN7obj_refI4expr11ast_managerEaSEPS0_.exit unwind label %lpad4

_ZN7obj_refI4expr11ast_managerEaSEPS0_.exit:      ; preds = %if.then2.i.i.i, %if.end.i, %if.then.i.i.i
  store ptr %call12, ptr %result, align 8
  br label %cleanup

lpad4:                                            ; preds = %if.then2.i.i.i, %if.then, %invoke.cont3
  %9 = landingpad { ptr, i32 }
          cleanup
  call void @_ZN7obj_refI4expr11ast_managerED2Ev(ptr noundef nonnull align 8 dereferenceable(16) %t) #19
  call void @_ZN7obj_refI4expr11ast_managerED2Ev(ptr noundef nonnull align 8 dereferenceable(16) %s) #19
  resume { ptr, i32 } %9

cleanup:                                          ; preds = %_ZN7obj_refI4expr11ast_managerEaSEPS0_.exit, %invoke.cont5
  %tobool.not.i.i10 = icmp eq ptr %.pre26, null
  br i1 %tobool.not.i.i10, label %_ZN7obj_refI4expr11ast_managerED2Ev.exit, label %if.then.i.i.i11

if.then.i.i.i11:                                  ; preds = %cleanup
  %10 = load ptr, ptr %m_manager.i3, align 8
  %m_ref_count.i.i.i.i13 = getelementptr inbounds i8, ptr %.pre26, i64 8
  %11 = load i32, ptr %m_ref_count.i.i.i.i13, align 4
  %dec.i.i.i.i14 = add i32 %11, -1
  store i32 %dec.i.i.i.i14, ptr %m_ref_count.i.i.i.i13, align 4
  %cmp.i.i.i15 = icmp eq i32 %dec.i.i.i.i14, 0
  br i1 %cmp.i.i.i15, label %if.then2.i.i.i16, label %_ZN7obj_refI4expr11ast_managerED2Ev.exit

if.then2.i.i.i16:                                 ; preds = %if.then.i.i.i11
  invoke void @_ZN11ast_manager11delete_nodeEP3ast(ptr noundef nonnull align 8 dereferenceable(976) %10, ptr noundef nonnull %.pre26)
          to label %_ZN7obj_refI4expr11ast_managerED2Ev.exit unwind label %terminate.lpad.i

terminate.lpad.i:                                 ; preds = %if.then2.i.i.i16
  %12 = landingpad { ptr, i32 }
          catch ptr null
  %13 = extractvalue { ptr, i32 } %12, 0
  tail call void @__clang_call_terminate(ptr %13) #18
  unreachable

_ZN7obj_refI4expr11ast_managerED2Ev.exit:         ; preds = %cleanup, %if.then.i.i.i11, %if.then2.i.i.i16
  %14 = load ptr, ptr %s, align 8
  %tobool.not.i.i17 = icmp eq ptr %14, null
  br i1 %tobool.not.i.i17, label %_ZN7obj_refI4expr11ast_managerED2Ev.exit25, label %if.then.i.i.i18

if.then.i.i.i18:                                  ; preds = %_ZN7obj_refI4expr11ast_managerED2Ev.exit
  %15 = load ptr, ptr %m_manager.i, align 8
  %m_ref_count.i.i.i.i20 = getelementptr inbounds i8, ptr %14, i64 8
  %16 = load i32, ptr %m_ref_count.i.i.i.i20, align 4
  %dec.i.i.i.i21 = add i32 %16, -1
  store i32 %dec.i.i.i.i21, ptr %m_ref_count.i.i.i.i20, align 4
  %cmp.i.i.i22 = icmp eq i32 %dec.i.i.i.i21, 0
  br i1 %cmp.i.i.i22, label %if.then2.i.i.i23, label %_ZN7obj_refI4expr11ast_managerED2Ev.exit25

if.then2.i.i.i23:                                 ; preds = %if.then.i.i.i18
  invoke void @_ZN11ast_manager11delete_nodeEP3ast(ptr noundef nonnull align 8 dereferenceable(976) %15, ptr noundef nonnull %14)
          to label %_ZN7obj_refI4expr11ast_managerED2Ev.exit25 unwind label %terminate.lpad.i24

terminate.lpad.i24:                               ; preds = %if.then2.i.i.i23
  %17 = landingpad { ptr, i32 }
          catch ptr null
  %18 = extractvalue { ptr, i32 } %17, 0
  tail call void @__clang_call_terminate(ptr %18) #18
  unreachable

_ZN7obj_refI4expr11ast_managerED2Ev.exit25:       ; preds = %_ZN7obj_refI4expr11ast_managerED2Ev.exit, %if.then.i.i.i18, %if.then2.i.i.i23
  ret i1 %call6
}